target datalayout = "e-m:e-p270:32:32-p271:32:32-p272:64:64-i64:64-i128:128-f80:128-n8:16:32:64-S128"
target triple = "x86_64-pc-linux-gnu"

%"struct.evmone::advanced::AdvancedExecutionState" = type <{ %"class.evmone::ExecutionState", i64, %"class.evmone::StackTop", i32, [4 x i8] }>
%"class.evmone::ExecutionState" = type { i64, %"class.evmone::Memory", ptr, %"class.evmc::HostContext", i32, %"class.std::__cxx11::basic_string", %"class.std::basic_string_view", i32, i64, i64, %"class.std::optional", %struct.evmc_tx_context, %"class.std::optional.5", %union.anon.22, %"class.std::vector", %"class.evmone::StackSpace" }
%"class.evmone::Memory" = type { %"class.std::unique_ptr", i64, i64 }
%"class.std::unique_ptr" = type { %"struct.std::__uniq_ptr_data" }
%"struct.std::__uniq_ptr_data" = type { %"class.std::__uniq_ptr_impl" }
%"class.std::__uniq_ptr_impl" = type { %"class.std::tuple" }
%"class.std::tuple" = type { %"struct.std::_Tuple_impl" }
%"struct.std::_Tuple_impl" = type { %"struct.std::_Head_base.2" }
%"struct.std::_Head_base.2" = type { ptr }
%"class.evmc::HostContext" = type { %"class.evmc::HostInterface", ptr, ptr }
%"class.evmc::HostInterface" = type { ptr }
%"class.std::__cxx11::basic_string" = type { %"struct.std::__cxx11::basic_string<unsigned char, evmc::byte_traits<unsigned char>>::_Alloc_hider", i64, %union.anon }
%"struct.std::__cxx11::basic_string<unsigned char, evmc::byte_traits<unsigned char>>::_Alloc_hider" = type { ptr }
%union.anon = type { i64, [8 x i8] }
%"class.std::basic_string_view" = type { i64, ptr }
%"class.std::optional" = type { %"struct.std::_Optional_base" }
%"struct.std::_Optional_base" = type { %"struct.std::_Optional_payload" }
%"struct.std::_Optional_payload" = type { %"struct.std::_Optional_payload.base", [7 x i8] }
%"struct.std::_Optional_payload.base" = type { %"struct.std::_Optional_payload_base.base" }
%"struct.std::_Optional_payload_base.base" = type <{ %"union.std::_Optional_payload_base<std::__cxx11::basic_string<unsigned char, evmc::byte_traits<unsigned char>>>::_Storage", i8 }>
%"union.std::_Optional_payload_base<std::__cxx11::basic_string<unsigned char, evmc::byte_traits<unsigned char>>>::_Storage" = type { %"class.std::__cxx11::basic_string" }
%struct.evmc_tx_context = type { %struct.evmc_bytes32, %struct.evmc_address, %struct.evmc_address, i64, i64, i64, %struct.evmc_bytes32, %struct.evmc_bytes32, %struct.evmc_bytes32, %struct.evmc_bytes32, ptr, i64, ptr, i64 }
%struct.evmc_address = type { [20 x i8] }
%struct.evmc_bytes32 = type { [32 x i8] }
%"class.std::optional.5" = type { %"struct.std::_Optional_base.6" }
%"struct.std::_Optional_base.6" = type { %"struct.std::_Optional_payload.8" }
%"struct.std::_Optional_payload.8" = type { %"struct.std::_Optional_payload.base.19", [7 x i8] }
%"struct.std::_Optional_payload.base.19" = type { %"struct.std::_Optional_payload_base.base.18" }
%"struct.std::_Optional_payload_base.base.18" = type <{ %"union.std::_Optional_payload_base<std::unordered_map<evmc::bytes32, evmone::TransactionInitcode>>::_Storage", i8 }>
%"union.std::_Optional_payload_base<std::unordered_map<evmc::bytes32, evmone::TransactionInitcode>>::_Storage" = type { %"class.std::unordered_map" }
%"class.std::unordered_map" = type { %"class.std::_Hashtable" }
%"class.std::_Hashtable" = type { ptr, i64, %"struct.std::__detail::_Hash_node_base", i64, %"struct.std::__detail::_Prime_rehash_policy", ptr }
%"struct.std::__detail::_Hash_node_base" = type { ptr }
%"struct.std::__detail::_Prime_rehash_policy" = type { float, i64 }
%union.anon.22 = type { ptr }
%"class.std::vector" = type { %"struct.std::_Vector_base" }
%"struct.std::_Vector_base" = type { %"struct.std::_Vector_base<const unsigned char *, std::allocator<const unsigned char *>>::_Vector_impl" }
%"struct.std::_Vector_base<const unsigned char *, std::allocator<const unsigned char *>>::_Vector_impl" = type { %"struct.std::_Vector_base<const unsigned char *, std::allocator<const unsigned char *>>::_Vector_impl_data" }
%"struct.std::_Vector_base<const unsigned char *, std::allocator<const unsigned char *>>::_Vector_impl_data" = type { ptr, ptr, ptr }
%"class.evmone::StackSpace" = type { %"class.std::unique_ptr.26" }
%"class.std::unique_ptr.26" = type { %"struct.std::__uniq_ptr_data.27" }
%"struct.std::__uniq_ptr_data.27" = type { %"class.std::__uniq_ptr_impl.28" }
%"class.std::__uniq_ptr_impl.28" = type { %"class.std::tuple.29" }
%"class.std::tuple.29" = type { %"struct.std::_Tuple_impl.30" }
%"struct.std::_Tuple_impl.30" = type { %"struct.std::_Head_base.33" }
%"struct.std::_Head_base.33" = type { ptr }
%"class.evmone::StackTop" = type { ptr }
%"struct.evmone::advanced::Instruction" = type { ptr, %"union.evmone::advanced::InstructionArgument" }
%"union.evmone::advanced::InstructionArgument" = type { i64 }
%"struct.intx::uint" = type { [4 x i64] }
%"struct.evmone::advanced::BlockInfo" = type { i32, i16, i16 }
%"struct.evmone::StackSpace::Storage" = type { [1024 x %"struct.intx::uint"] }

; Function Attrs: mustprogress nounwind uwtable
define linkonce_odr hidden noundef nonnull align 8 dereferenceable(8) ptr @_ZNSt10_Head_baseILm0EPN6evmone10StackSpace7StorageELb0EE7_M_headERKS4_(ptr noundef nonnull align 8 dereferenceable(8) %0) #0 comdat align 2 {
  %2 = alloca ptr, align 8
  store ptr %0, ptr %2, align 8, !tbaa !135
  %3 = load ptr, ptr %2, align 8, !tbaa !135, !nonnull !12, !align !13
  %4 = getelementptr inbounds nuw %"struct.std::_Head_base.33", ptr %3, i32 0, i32 0
  ret ptr %4
}

; Function Attrs: mustprogress nounwind uwtable
define linkonce_odr hidden noundef nonnull align 8 dereferenceable(8) ptr @_ZNSt11_Tuple_implILm0EJPN6evmone10StackSpace7StorageESt14default_deleteIS2_EEE7_M_headERKS6_(ptr noundef nonnull align 8 dereferenceable(8) %0) #0 comdat align 2 {
  %2 = alloca ptr, align 8
  store ptr %0, ptr %2, align 8, !tbaa !133
  %3 = load ptr, ptr %2, align 8, !tbaa !133, !nonnull !12, !align !13
  %4 = call noundef nonnull align 8 dereferenceable(8) ptr @_ZNSt10_Head_baseILm0EPN6evmone10StackSpace7StorageELb0EE7_M_headERKS4_(ptr noundef nonnull align 8 dereferenceable(8) %3) #16
  ret ptr %4
}

; Function Attrs: mustprogress nounwind uwtable
define linkonce_odr hidden noundef nonnull align 8 dereferenceable(8) ptr @_ZSt12__get_helperILm0EPN6evmone10StackSpace7StorageEJSt14default_deleteIS2_EEERKT0_RKSt11_Tuple_implIXT_EJS6_DpT1_EE(ptr noundef nonnull align 8 dereferenceable(8) %0) #0 comdat {
  %2 = alloca ptr, align 8
  store ptr %0, ptr %2, align 8, !tbaa !133
  %3 = load ptr, ptr %2, align 8, !tbaa !133, !nonnull !12, !align !13
  %4 = call noundef nonnull align 8 dereferenceable(8) ptr @_ZNSt11_Tuple_implILm0EJPN6evmone10StackSpace7StorageESt14default_deleteIS2_EEE7_M_headERKS6_(ptr noundef nonnull align 8 dereferenceable(8) %3) #16
  ret ptr %4
}

; Function Attrs: mustprogress nounwind uwtable
define linkonce_odr hidden noundef nonnull align 8 dereferenceable(8) ptr @_ZSt3getILm0EJPN6evmone10StackSpace7StorageESt14default_deleteIS2_EEERKNSt13tuple_elementIXT_ESt5tupleIJDpT0_EEE4typeERKSA_(ptr noundef nonnull align 8 dereferenceable(8) %0) #0 comdat {
  %2 = alloca ptr, align 8
  store ptr %0, ptr %2, align 8, !tbaa !131
  %3 = load ptr, ptr %2, align 8, !tbaa !131, !nonnull !12, !align !13
  %4 = call noundef nonnull align 8 dereferenceable(8) ptr @_ZSt12__get_helperILm0EPN6evmone10StackSpace7StorageEJSt14default_deleteIS2_EEERKT0_RKSt11_Tuple_implIXT_EJS6_DpT1_EE(ptr noundef nonnull align 8 dereferenceable(8) %3) #16
  ret ptr %4
}

; Function Attrs: mustprogress nounwind uwtable
define linkonce_odr hidden noundef ptr @_ZNKSt15__uniq_ptr_implIN6evmone10StackSpace7StorageESt14default_deleteIS2_EE6_M_ptrEv(ptr noundef nonnull align 8 dereferenceable(8) %0) #0 comdat align 2 {
  %2 = alloca ptr, align 8
  store ptr %0, ptr %2, align 8, !tbaa !128
  %3 = load ptr, ptr %2, align 8
  %4 = getelementptr inbounds nuw %"class.std::__uniq_ptr_impl.28", ptr %3, i32 0, i32 0
  %5 = call noundef nonnull align 8 dereferenceable(8) ptr @_ZSt3getILm0EJPN6evmone10StackSpace7StorageESt14default_deleteIS2_EEERKNSt13tuple_elementIXT_ESt5tupleIJDpT0_EEE4typeERKSA_(ptr noundef nonnull align 8 dereferenceable(8) %4) #16
  %6 = load ptr, ptr %5, align 8, !tbaa !130
  ret ptr %6
}

; Function Attrs: mustprogress nounwind uwtable
define linkonce_odr hidden noundef ptr @_ZNKSt10unique_ptrIN6evmone10StackSpace7StorageESt14default_deleteIS2_EE3getEv(ptr noundef nonnull align 8 dereferenceable(8) %0) #0 comdat align 2 {
  %2 = alloca ptr, align 8
  store ptr %0, ptr %2, align 8, !tbaa !126
  %3 = load ptr, ptr %2, align 8
  %4 = getelementptr inbounds nuw %"class.std::unique_ptr.26", ptr %3, i32 0, i32 0
  %5 = call noundef ptr @_ZNKSt15__uniq_ptr_implIN6evmone10StackSpace7StorageESt14default_deleteIS2_EE6_M_ptrEv(ptr noundef nonnull align 8 dereferenceable(8) %4)
  ret ptr %5
}

; Function Attrs: mustprogress nounwind uwtable
define linkonce_odr hidden noundef ptr @_ZNKSt10unique_ptrIN6evmone10StackSpace7StorageESt14default_deleteIS2_EEptEv(ptr noundef nonnull align 8 dereferenceable(8) %0) #0 comdat align 2 {
  %2 = alloca ptr, align 8
  store ptr %0, ptr %2, align 8, !tbaa !126
  %3 = load ptr, ptr %2, align 8
  %4 = call noundef ptr @_ZNKSt10unique_ptrIN6evmone10StackSpace7StorageESt14default_deleteIS2_EE3getEv(ptr noundef nonnull align 8 dereferenceable(8) %3) #16
  ret ptr %4
}

; Function Attrs: mustprogress nounwind uwtable
define linkonce_odr hidden noundef ptr @_ZN6evmone10StackSpace6bottomEv(ptr noundef nonnull align 8 dereferenceable(8) %0) #0 comdat align 2 {
  %2 = alloca ptr, align 8
  store ptr %0, ptr %2, align 8, !tbaa !124
  %3 = load ptr, ptr %2, align 8
  %4 = getelementptr inbounds nuw %"class.evmone::StackSpace", ptr %3, i32 0, i32 0
  %5 = call noundef ptr @_ZNKSt10unique_ptrIN6evmone10StackSpace7StorageESt14default_deleteIS2_EEptEv(ptr noundef nonnull align 8 dereferenceable(8) %4) #16
  %6 = getelementptr inbounds nuw %"struct.evmone::StackSpace::Storage", ptr %5, i32 0, i32 0
  %7 = getelementptr inbounds [1024 x %"struct.intx::uint"], ptr %6, i64 0, i64 0
  ret ptr %7
}

; Function Attrs: mustprogress nounwind uwtable
define linkonce_odr hidden noundef ptr @_ZN6evmone8StackTop3endEv(ptr noundef nonnull align 8 dereferenceable(8) %0) #0 comdat align 2 {
  %2 = alloca ptr, align 8
  store ptr %0, ptr %2, align 8, !tbaa !92
  %3 = load ptr, ptr %2, align 8
  %4 = getelementptr inbounds nuw %"class.evmone::StackTop", ptr %3, i32 0, i32 0
  %5 = load ptr, ptr %4, align 8, !tbaa !94
  ret ptr %5
}

; Function Attrs: mustprogress nounwind uwtable
define linkonce_odr hidden noundef i32 @_ZN6evmone8advanced22AdvancedExecutionState10stack_sizeEv(ptr noundef nonnull align 8 dereferenceable(564) %0) #0 comdat align 2 {
  %2 = alloca ptr, align 8
  store ptr %0, ptr %2, align 8, !tbaa !10
  %3 = load ptr, ptr %2, align 8
  %4 = getelementptr inbounds nuw %"struct.evmone::advanced::AdvancedExecutionState", ptr %3, i32 0, i32 2
  %5 = call noundef ptr @_ZN6evmone8StackTop3endEv(ptr noundef nonnull align 8 dereferenceable(8) %4) #16
  %6 = getelementptr inbounds nuw %"class.evmone::ExecutionState", ptr %3, i32 0, i32 15
  %7 = call noundef ptr @_ZN6evmone10StackSpace6bottomEv(ptr noundef nonnull align 8 dereferenceable(8) %6) #16
  %8 = ptrtoint ptr %5 to i64
  %9 = ptrtoint ptr %7 to i64
  %10 = sub i64 %8, %9
  %11 = sdiv exact i64 %10, 32
  %12 = trunc i64 %11 to i32
  ret i32 %12
}

; Function Attrs: mustprogress nounwind uwtable
define linkonce_odr hidden noundef ptr @_ZN6evmone8advanced22AdvancedExecutionState4exitE16evmc_status_code(ptr noundef nonnull align 8 dereferenceable(564) %0, i32 noundef %1) #0 comdat align 2 {
  %3 = alloca ptr, align 8
  %4 = alloca i32, align 4
  store ptr %0, ptr %3, align 8, !tbaa !10
  store i32 %1, ptr %4, align 4, !tbaa !71
  %5 = load ptr, ptr %3, align 8
  %6 = load i32, ptr %4, align 4, !tbaa !71
  %7 = getelementptr inbounds nuw %"class.evmone::ExecutionState", ptr %5, i32 0, i32 7
  store i32 %6, ptr %7, align 8, !tbaa !87
  ret ptr null
}

; Function Attrs: mustprogress nounwind uwtable
define internal noundef ptr @_ZN6evmone8advanced12_GLOBAL__N_114opx_beginblockEPKNS0_11InstructionERNS0_22AdvancedExecutionStateE(ptr noundef %0, ptr noundef nonnull align 8 dereferenceable(564) %1) #0 {
  %3 = alloca ptr, align 8
  %4 = alloca ptr, align 8
  %5 = alloca ptr, align 8
  %6 = alloca ptr, align 8
  %7 = alloca i32, align 4
  %8 = alloca i32, align 4
  store ptr %0, ptr %4, align 8, !tbaa !7
  store ptr %1, ptr %5, align 8, !tbaa !10
  call void @llvm.lifetime.start.p0(ptr %6) #16
  %9 = load ptr, ptr %4, align 8, !tbaa !7
  %10 = getelementptr inbounds nuw %"struct.evmone::advanced::Instruction", ptr %9, i32 0, i32 1
  store ptr %10, ptr %6, align 8, !tbaa !77
  %11 = load ptr, ptr %6, align 8, !tbaa !77, !nonnull !12, !align !79
  %12 = getelementptr inbounds nuw %"struct.evmone::advanced::BlockInfo", ptr %11, i32 0, i32 0
  %13 = load i32, ptr %12, align 4, !tbaa !80
  %14 = zext i32 %13 to i64
  %15 = load ptr, ptr %5, align 8, !tbaa !10, !nonnull !12, !align !13
  %16 = getelementptr inbounds nuw %"struct.evmone::advanced::AdvancedExecutionState", ptr %15, i32 0, i32 1
  %17 = load i64, ptr %16, align 8, !tbaa !18
  %18 = sub nsw i64 %17, %14
  store i64 %18, ptr %16, align 8, !tbaa !18
  %19 = icmp slt i64 %18, 0
  br i1 %19, label %20, label %23

20:                                               ; preds = %2
  %21 = load ptr, ptr %5, align 8, !tbaa !10, !nonnull !12, !align !13
  %22 = call noundef ptr @_ZN6evmone8advanced22AdvancedExecutionState4exitE16evmc_status_code(ptr noundef nonnull align 8 dereferenceable(564) %21, i32 noundef 3) #16
  store ptr %22, ptr %3, align 8
  store i32 1, ptr %7, align 4
  br label %58

23:                                               ; preds = %2
  call void @llvm.lifetime.start.p0(ptr %8) #16
  %24 = load ptr, ptr %5, align 8, !tbaa !10, !nonnull !12, !align !13
  %25 = call noundef i32 @_ZN6evmone8advanced22AdvancedExecutionState10stack_sizeEv(ptr noundef nonnull align 8 dereferenceable(564) %24) #16
  store i32 %25, ptr %8, align 4, !tbaa !76
  %26 = load i32, ptr %8, align 4, !tbaa !76
  %27 = load ptr, ptr %6, align 8, !tbaa !77, !nonnull !12, !align !79
  %28 = getelementptr inbounds nuw %"struct.evmone::advanced::BlockInfo", ptr %27, i32 0, i32 1
  %29 = load i16, ptr %28, align 4, !tbaa !83
  %30 = sext i16 %29 to i32
  %31 = icmp slt i32 %26, %30
  br i1 %31, label %32, label %35

32:                                               ; preds = %23
  %33 = load ptr, ptr %5, align 8, !tbaa !10, !nonnull !12, !align !13
  %34 = call noundef ptr @_ZN6evmone8advanced22AdvancedExecutionState4exitE16evmc_status_code(ptr noundef nonnull align 8 dereferenceable(564) %33, i32 noundef 7) #16
  store ptr %34, ptr %3, align 8
  store i32 1, ptr %7, align 4
  br label %48

35:                                               ; preds = %23
  %36 = load i32, ptr %8, align 4, !tbaa !76
  %37 = load ptr, ptr %6, align 8, !tbaa !77, !nonnull !12, !align !79
  %38 = getelementptr inbounds nuw %"struct.evmone::advanced::BlockInfo", ptr %37, i32 0, i32 2
  %39 = load i16, ptr %38, align 2, !tbaa !84
  %40 = sext i16 %39 to i32
  %41 = add nsw i32 %36, %40
  %42 = icmp sgt i32 %41, 1024
  br i1 %42, label %43, label %46

43:                                               ; preds = %35
  %44 = load ptr, ptr %5, align 8, !tbaa !10, !nonnull !12, !align !13
  %45 = call noundef ptr @_ZN6evmone8advanced22AdvancedExecutionState4exitE16evmc_status_code(ptr noundef nonnull align 8 dereferenceable(564) %44, i32 noundef 6) #16
  store ptr %45, ptr %3, align 8
  store i32 1, ptr %7, align 4
  br label %48

46:                                               ; preds = %35
  br label %47

47:                                               ; preds = %46
  store i32 0, ptr %7, align 4
  br label %48

48:                                               ; preds = %47, %43, %32
  call void @llvm.lifetime.end.p0(ptr %8) #16
  %49 = load i32, ptr %7, align 4
  switch i32 %49, label %58 [
    i32 0, label %50
  ]

50:                                               ; preds = %48
  %51 = load ptr, ptr %6, align 8, !tbaa !77, !nonnull !12, !align !79
  %52 = getelementptr inbounds nuw %"struct.evmone::advanced::BlockInfo", ptr %51, i32 0, i32 0
  %53 = load i32, ptr %52, align 4, !tbaa !80
  %54 = load ptr, ptr %5, align 8, !tbaa !10, !nonnull !12, !align !13
  %55 = getelementptr inbounds nuw %"struct.evmone::advanced::AdvancedExecutionState", ptr %54, i32 0, i32 3
  store i32 %53, ptr %55, align 8, !tbaa !72
  %56 = load ptr, ptr %4, align 8, !tbaa !7
  %57 = getelementptr inbounds nuw %"struct.evmone::advanced::Instruction", ptr %56, i32 1
  store ptr %57, ptr %4, align 8, !tbaa !7
  store ptr %57, ptr %3, align 8
  store i32 1, ptr %7, align 4
  br label %58

58:                                               ; preds = %50, %48, %20
  call void @llvm.lifetime.end.p0(ptr %6) #16
  %59 = load ptr, ptr %3, align 8
  ret ptr %59
}