; Function Attrs: mustprogress nofree norecurse nosync nounwind willreturn memory(argmem: readwrite) uwtable
define internal noundef ptr @_ZN6evmone8advanced12_GLOBAL__N_114opx_beginblockEPKNS0_11InstructionERNS0_22AdvancedExecutionStateE(ptr noundef readonly captures(ret: address, provenance) %0, ptr noundef nonnull align 8 captures(none) dereferenceable(564) %1) #10 {
  %3 = getelementptr inbounds nuw i8, ptr %0, i64 8
  %4 = load i32, ptr %3, align 4, !tbaa !211
  %5 = zext i32 %4 to i64
  %6 = getelementptr inbounds nuw i8, ptr %1, i64 544
  %7 = load i64, ptr %6, align 8, !tbaa !106
  %8 = sub nsw i64 %7, %5
  store i64 %8, ptr %6, align 8, !tbaa !106
  %9 = icmp slt i64 %8, 0
  br i1 %9, label %10, label %12

10:                                               ; preds = %2
  %11 = getelementptr inbounds nuw i8, ptr %1, i64 120
  store i32 3, ptr %11, align 8, !tbaa !3
  br label %.thread

12:                                               ; preds = %2
  %13 = getelementptr inbounds nuw i8, ptr %1, i64 552
  %14 = load ptr, ptr %13, align 8, !tbaa !67
  %15 = getelementptr inbounds nuw i8, ptr %1, i64 536
  %16 = load ptr, ptr %15, align 8, !tbaa !214
  %17 = ptrtoint ptr %14 to i64
  %18 = ptrtoint ptr %16 to i64
  %19 = sub i64 %17, %18
  %20 = lshr exact i64 %19, 5
  %21 = trunc i64 %20 to i32
  %22 = getelementptr inbounds nuw i8, ptr %0, i64 12
  %23 = load i16, ptr %22, align 4, !tbaa !215
  %24 = sext i16 %23 to i32
  %25 = icmp slt i32 %21, %24
  br i1 %25, label %26, label %28

26:                                               ; preds = %12
  %27 = getelementptr inbounds nuw i8, ptr %1, i64 120
  store i32 7, ptr %27, align 8, !tbaa !3
  br label %.thread

28:                                               ; preds = %12
  %29 = getelementptr inbounds nuw i8, ptr %0, i64 14
  %30 = load i16, ptr %29, align 2, !tbaa !216
  %31 = sext i16 %30 to i32
  %32 = add nsw i32 %31, %21
  %33 = icmp sgt i32 %32, 1024
  br i1 %33, label %34, label %36

34:                                               ; preds = %28
  %35 = getelementptr inbounds nuw i8, ptr %1, i64 120
  store i32 6, ptr %35, align 8, !tbaa !3
  br label %.thread

36:                                               ; preds = %28
  %37 = getelementptr inbounds nuw i8, ptr %1, i64 560
  store i32 %4, ptr %37, align 8, !tbaa !201
  %38 = getelementptr inbounds nuw i8, ptr %0, i64 16
  br label %.thread

.thread:                                          ; preds = %34, %26, %36, %10
  %.0 = phi ptr [ null, %10 ], [ %38, %36 ], [ null, %26 ], [ null, %34 ]
  ret ptr %.0
}